target datalayout = "e-m:e-p270:32:32-p271:32:32-p272:64:64-i64:64-i128:128-f80:128-n8:16:32:64-S128"
target triple = "x86_64-pc-linux-gnu"

%struct.AVTXContext = type { i32, i32, ptr, ptr, ptr, ptr, [4 x ptr], i32, [4 x ptr], ptr, i32, i64, i32, float, double, ptr }

; Function Attrs: cold nounwind optsize uwtable
define internal i32 @ff_tx_rdft_init_float_c(ptr noundef %0, ptr noundef %1, i64 noundef %2, ptr noundef %3, i32 noundef %4, i32 noundef %5, ptr noundef %6) #0 {
  %8 = alloca i32, align 4
  %9 = alloca ptr, align 8
  %10 = alloca ptr, align 8
  %11 = alloca i64, align 8
  %12 = alloca ptr, align 8
  %13 = alloca i32, align 4
  %14 = alloca i32, align 4
  %15 = alloca ptr, align 8
  %16 = alloca i32, align 4
  %17 = alloca double, align 8
  %18 = alloca double, align 8
  %19 = alloca ptr, align 8
  %20 = alloca i64, align 8
  %21 = alloca i32, align 4
  %22 = alloca i32, align 4
  %23 = alloca i32, align 4
  %24 = alloca i32, align 4
  store ptr %0, ptr %9, align 8, !tbaa !17
  store ptr %1, ptr %10, align 8, !tbaa !61
  store i64 %2, ptr %11, align 8, !tbaa !30
  store ptr %3, ptr %12, align 8, !tbaa !62
  store i32 %4, ptr %13, align 4, !tbaa !4
  store i32 %5, ptr %14, align 4, !tbaa !4
  store ptr %6, ptr %15, align 8, !tbaa !8
  call void @llvm.lifetime.start.p0(i64 4, ptr %16) #10
  call void @llvm.lifetime.start.p0(i64 8, ptr %17) #10
  call void @llvm.lifetime.start.p0(i64 8, ptr %18) #10
  call void @llvm.lifetime.start.p0(i64 8, ptr %19) #10
  call void @llvm.lifetime.start.p0(i64 8, ptr %20) #10
  %25 = load i64, ptr %11, align 8, !tbaa !30
  %26 = and i64 %25, 8
  store i64 %26, ptr %20, align 8, !tbaa !30
  call void @llvm.lifetime.start.p0(i64 4, ptr %21) #10
  %27 = load i32, ptr %13, align 4, !tbaa !4
  %28 = add nsw i32 %27, 4
  %29 = sub nsw i32 %28, 1
  %30 = and i32 %29, -4
  %31 = sdiv i32 %30, 4
  store i32 %31, ptr %21, align 4, !tbaa !4
  %32 = load ptr, ptr %15, align 8, !tbaa !8
  %33 = load float, ptr %32, align 4, !tbaa !36
  %34 = fpext nsz float %33 to double
  %35 = load ptr, ptr %9, align 8, !tbaa !17
  %36 = getelementptr inbounds nuw %struct.AVTXContext, ptr %35, i32 0, i32 14
  store double %34, ptr %36, align 8, !tbaa !28
  %37 = load ptr, ptr %9, align 8, !tbaa !17
  %38 = getelementptr inbounds nuw %struct.AVTXContext, ptr %37, i32 0, i32 14
  %39 = load double, ptr %38, align 8, !tbaa !28
  %40 = fptrunc nsz double %39 to float
  %41 = load ptr, ptr %9, align 8, !tbaa !17
  %42 = getelementptr inbounds nuw %struct.AVTXContext, ptr %41, i32 0, i32 13
  store float %40, ptr %42, align 4, !tbaa !94
  %43 = load i64, ptr %11, align 8, !tbaa !30
  %44 = and i64 %43, -25
  store i64 %44, ptr %11, align 8, !tbaa !30
  %45 = load ptr, ptr %9, align 8, !tbaa !17
  %46 = load i64, ptr %11, align 8, !tbaa !30
  %47 = load i32, ptr %13, align 4, !tbaa !4
  %48 = ashr i32 %47, 1
  %49 = load i32, ptr %14, align 4, !tbaa !4
  %50 = load ptr, ptr %15, align 8, !tbaa !8
  %51 = call i32 @ff_tx_init_subtx(ptr noundef %45, i32 noundef 0, i64 noundef %46, ptr noundef null, i32 noundef %48, i32 noundef %49, ptr noundef %50)
  store i32 %51, ptr %16, align 4, !tbaa !4
  %52 = icmp ne i32 %51, 0
  br i1 %52, label %53, label %55

53:                                               ; preds = %7
  %54 = load i32, ptr %16, align 4, !tbaa !4
  store i32 %54, ptr %8, align 4
  store i32 1, ptr %22, align 4
  br label %206

55:                                               ; preds = %7
  %56 = load i32, ptr %21, align 4, !tbaa !4
  %57 = mul nsw i32 2, %56
  %58 = add nsw i32 8, %57
  %59 = sext i32 %58 to i64
  %60 = mul i64 %59, 8
  %61 = call noalias ptr @av_mallocz(i64 noundef %60)
  %62 = load ptr, ptr %9, align 8, !tbaa !17
  %63 = getelementptr inbounds nuw %struct.AVTXContext, ptr %62, i32 0, i32 3
  store ptr %61, ptr %63, align 8, !tbaa !31
  %64 = icmp ne ptr %61, null
  br i1 %64, label %66, label %65

65:                                               ; preds = %55
  store i32 -12, ptr %8, align 4
  store i32 1, ptr %22, align 4
  br label %206

66:                                               ; preds = %55
  %67 = load ptr, ptr %9, align 8, !tbaa !17
  %68 = getelementptr inbounds nuw %struct.AVTXContext, ptr %67, i32 0, i32 3
  %69 = load ptr, ptr %68, align 8, !tbaa !31
  store ptr %69, ptr %19, align 8, !tbaa !39
  %70 = load i32, ptr %13, align 4, !tbaa !4
  %71 = sitofp i32 %70 to double
  %72 = fdiv nsz double 0x401921FB54442D18, %71
  store double %72, ptr %17, align 8, !tbaa !29
  %73 = load i32, ptr %14, align 4, !tbaa !4
  %74 = icmp ne i32 %73, 0
  br i1 %74, label %75, label %80

75:                                               ; preds = %66
  %76 = load ptr, ptr %9, align 8, !tbaa !17
  %77 = getelementptr inbounds nuw %struct.AVTXContext, ptr %76, i32 0, i32 14
  %78 = load double, ptr %77, align 8, !tbaa !28
  %79 = fmul nsz double 2.000000e+00, %78
  br label %84

80:                                               ; preds = %66
  %81 = load ptr, ptr %9, align 8, !tbaa !17
  %82 = getelementptr inbounds nuw %struct.AVTXContext, ptr %81, i32 0, i32 14
  %83 = load double, ptr %82, align 8, !tbaa !28
  br label %84

84:                                               ; preds = %80, %75
  %85 = phi nsz double [ %79, %75 ], [ %83, %80 ]
  store double %85, ptr %18, align 8, !tbaa !29
  %86 = load i32, ptr %14, align 4, !tbaa !4
  %87 = icmp ne i32 %86, 0
  %88 = select nsz i1 %87, double 5.000000e-01, double 1.000000e+00
  %89 = load double, ptr %18, align 8, !tbaa !29
  %90 = fmul nsz double %88, %89
  %91 = fptrunc nsz double %90 to float
  %92 = load ptr, ptr %19, align 8, !tbaa !39
  %93 = getelementptr inbounds nuw float, ptr %92, i32 1
  store ptr %93, ptr %19, align 8, !tbaa !39
  store float %91, ptr %92, align 4, !tbaa !36
  %94 = load i32, ptr %14, align 4, !tbaa !4
  %95 = icmp ne i32 %94, 0
  br i1 %95, label %96, label %99

96:                                               ; preds = %84
  %97 = load double, ptr %18, align 8, !tbaa !29
  %98 = fmul nsz double 5.000000e-01, %97
  br label %102

99:                                               ; preds = %84
  %100 = load double, ptr %18, align 8, !tbaa !29
  %101 = fmul nsz double 1.000000e+00, %100
  br label %102

102:                                              ; preds = %99, %96
  %103 = phi nsz double [ %98, %96 ], [ %101, %99 ]
  %104 = fptrunc nsz double %103 to float
  %105 = load ptr, ptr %19, align 8, !tbaa !39
  %106 = getelementptr inbounds nuw float, ptr %105, i32 1
  store ptr %106, ptr %19, align 8, !tbaa !39
  store float %104, ptr %105, align 4, !tbaa !36
  %107 = load double, ptr %18, align 8, !tbaa !29
  %108 = fptrunc nsz double %107 to float
  %109 = load ptr, ptr %19, align 8, !tbaa !39
  %110 = getelementptr inbounds nuw float, ptr %109, i32 1
  store ptr %110, ptr %19, align 8, !tbaa !39
  store float %108, ptr %109, align 4, !tbaa !36
  %111 = load double, ptr %18, align 8, !tbaa !29
  %112 = fneg nsz double %111
  %113 = fptrunc nsz double %112 to float
  %114 = load ptr, ptr %19, align 8, !tbaa !39
  %115 = getelementptr inbounds nuw float, ptr %114, i32 1
  store ptr %115, ptr %19, align 8, !tbaa !39
  store float %113, ptr %114, align 4, !tbaa !36
  %116 = load double, ptr %18, align 8, !tbaa !29
  %117 = fmul nsz double 5.000000e-01, %116
  %118 = fptrunc nsz double %117 to float
  %119 = load ptr, ptr %19, align 8, !tbaa !39
  %120 = getelementptr inbounds nuw float, ptr %119, i32 1
  store ptr %120, ptr %19, align 8, !tbaa !39
  store float %118, ptr %119, align 4, !tbaa !36
  %121 = load i64, ptr %20, align 8, !tbaa !30
  %122 = icmp ne i64 %121, 0
  br i1 %122, label %123, label %130

123:                                              ; preds = %102
  %124 = load ptr, ptr %9, align 8, !tbaa !17
  %125 = getelementptr inbounds nuw %struct.AVTXContext, ptr %124, i32 0, i32 13
  %126 = load float, ptr %125, align 4, !tbaa !94
  %127 = fdiv nsz float 1.000000e+00, %126
  %128 = load ptr, ptr %19, align 8, !tbaa !39
  %129 = getelementptr inbounds nuw float, ptr %128, i32 1
  store ptr %129, ptr %19, align 8, !tbaa !39
  store float %127, ptr %128, align 4, !tbaa !36
  br label %136

130:                                              ; preds = %102
  %131 = load double, ptr %18, align 8, !tbaa !29
  %132 = fmul nsz double -5.000000e-01, %131
  %133 = fptrunc nsz double %132 to float
  %134 = load ptr, ptr %19, align 8, !tbaa !39
  %135 = getelementptr inbounds nuw float, ptr %134, i32 1
  store ptr %135, ptr %19, align 8, !tbaa !39
  store float %133, ptr %134, align 4, !tbaa !36
  br label %136

136:                                              ; preds = %130, %123
  %137 = load i32, ptr %14, align 4, !tbaa !4
  %138 = sitofp i32 %137 to double
  %139 = fsub nsz double 5.000000e-01, %138
  %140 = load double, ptr %18, align 8, !tbaa !29
  %141 = fmul nsz double %139, %140
  %142 = fptrunc nsz double %141 to float
  %143 = load ptr, ptr %19, align 8, !tbaa !39
  %144 = getelementptr inbounds nuw float, ptr %143, i32 1
  store ptr %144, ptr %19, align 8, !tbaa !39
  store float %142, ptr %143, align 4, !tbaa !36
  %145 = load i32, ptr %14, align 4, !tbaa !4
  %146 = sitofp i32 %145 to double
  %147 = fsub nsz double 5.000000e-01, %146
  %148 = fneg nsz double %147
  %149 = load double, ptr %18, align 8, !tbaa !29
  %150 = fmul nsz double %148, %149
  %151 = fptrunc nsz double %150 to float
  %152 = load ptr, ptr %19, align 8, !tbaa !39
  %153 = getelementptr inbounds nuw float, ptr %152, i32 1
  store ptr %153, ptr %19, align 8, !tbaa !39
  store float %151, ptr %152, align 4, !tbaa !36
  call void @llvm.lifetime.start.p0(i64 4, ptr %23) #10
  store i32 0, ptr %23, align 4, !tbaa !4
  br label %154

154:                                              ; preds = %168, %136
  %155 = load i32, ptr %23, align 4, !tbaa !4
  %156 = load i32, ptr %21, align 4, !tbaa !4
  %157 = icmp slt i32 %155, %156
  br i1 %157, label %159, label %158

158:                                              ; preds = %154
  store i32 2, ptr %22, align 4
  call void @llvm.lifetime.end.p0(i64 4, ptr %23) #10
  br label %171

159:                                              ; preds = %154
  %160 = load i32, ptr %23, align 4, !tbaa !4
  %161 = sitofp i32 %160 to double
  %162 = load double, ptr %17, align 8, !tbaa !29
  %163 = fmul nsz double %161, %162
  %164 = call nsz double @llvm.cos.f64(double %163)
  %165 = fptrunc nsz double %164 to float
  %166 = load ptr, ptr %19, align 8, !tbaa !39
  %167 = getelementptr inbounds nuw float, ptr %166, i32 1
  store ptr %167, ptr %19, align 8, !tbaa !39
  store float %165, ptr %166, align 4, !tbaa !36
  br label %168

168:                                              ; preds = %159
  %169 = load i32, ptr %23, align 4, !tbaa !4
  %170 = add nsw i32 %169, 1
  store i32 %170, ptr %23, align 4, !tbaa !4
  br label %154, !llvm.loop !149

171:                                              ; preds = %158
  %172 = load ptr, ptr %9, align 8, !tbaa !17
  %173 = getelementptr inbounds nuw %struct.AVTXContext, ptr %172, i32 0, i32 3
  %174 = load ptr, ptr %173, align 8, !tbaa !31
  %175 = load i32, ptr %21, align 4, !tbaa !4
  %176 = sext i32 %175 to i64
  %177 = getelementptr inbounds float, ptr %174, i64 %176
  %178 = getelementptr inbounds float, ptr %177, i64 8
  store ptr %178, ptr %19, align 8, !tbaa !39
  call void @llvm.lifetime.start.p0(i64 4, ptr %24) #10
  store i32 0, ptr %24, align 4, !tbaa !4
  br label %179

179:                                              ; preds = %202, %171
  %180 = load i32, ptr %24, align 4, !tbaa !4
  %181 = load i32, ptr %21, align 4, !tbaa !4
  %182 = icmp slt i32 %180, %181
  br i1 %182, label %184, label %183

183:                                              ; preds = %179
  store i32 5, ptr %22, align 4
  call void @llvm.lifetime.end.p0(i64 4, ptr %24) #10
  br label %205

184:                                              ; preds = %179
  %185 = load i32, ptr %13, align 4, !tbaa !4
  %186 = load i32, ptr %24, align 4, !tbaa !4
  %187 = mul nsw i32 %186, 4
  %188 = sub nsw i32 %185, %187
  %189 = sitofp i32 %188 to double
  %190 = fdiv nsz double %189, 4.000000e+00
  %191 = load double, ptr %17, align 8, !tbaa !29
  %192 = fmul nsz double %190, %191
  %193 = call nsz double @llvm.cos.f64(double %192)
  %194 = load i32, ptr %14, align 4, !tbaa !4
  %195 = icmp ne i32 %194, 0
  %196 = select i1 %195, i32 1, i32 -1
  %197 = sitofp i32 %196 to double
  %198 = fmul nsz double %193, %197
  %199 = fptrunc nsz double %198 to float
  %200 = load ptr, ptr %19, align 8, !tbaa !39
  %201 = getelementptr inbounds nuw float, ptr %200, i32 1
  store ptr %201, ptr %19, align 8, !tbaa !39
  store float %199, ptr %200, align 4, !tbaa !36
  br label %202

202:                                              ; preds = %184
  %203 = load i32, ptr %24, align 4, !tbaa !4
  %204 = add nsw i32 %203, 1
  store i32 %204, ptr %24, align 4, !tbaa !4
  br label %179, !llvm.loop !150

205:                                              ; preds = %183
  store i32 0, ptr %8, align 4
  store i32 1, ptr %22, align 4
  br label %206

206:                                              ; preds = %205, %65, %53
  call void @llvm.lifetime.end.p0(i64 4, ptr %21) #10
  call void @llvm.lifetime.end.p0(i64 8, ptr %20) #10
  call void @llvm.lifetime.end.p0(i64 8, ptr %19) #10
  call void @llvm.lifetime.end.p0(i64 8, ptr %18) #10
  call void @llvm.lifetime.end.p0(i64 8, ptr %17) #10
  call void @llvm.lifetime.end.p0(i64 4, ptr %16) #10
  %207 = load i32, ptr %8, align 4
  ret i32 %207
}