; Function Attrs: cold nounwind optsize uwtable
define internal i32 @ff_tx_rdft_init_float_c(ptr noundef initializes((140, 152)) %0, ptr readnone captures(none) %1, i64 noundef %2, ptr readnone captures(none) %3, i32 noundef %4, i32 noundef %5, ptr noundef %6) #0 {
  %8 = and i64 %2, 8
  %9 = add nsw i32 %4, 3
  %10 = ashr i32 %9, 2
  %11 = load float, ptr %6, align 4, !tbaa !27
  %12 = fpext nsz float %11 to double
  %13 = getelementptr inbounds nuw i8, ptr %0, i64 144
  store double %12, ptr %13, align 8, !tbaa !25
  %14 = getelementptr inbounds nuw i8, ptr %0, i64 140
  store float %11, ptr %14, align 4, !tbaa !83
  %15 = and i64 %2, -25
  %16 = ashr i32 %4, 1
  %17 = tail call i32 @ff_tx_init_subtx(ptr noundef %0, i32 noundef 0, i64 noundef %15, ptr noundef null, i32 noundef %16, i32 noundef %5, ptr noundef nonnull %6) #16
  %.not = icmp eq i32 %17, 0
  br i1 %.not, label %18, label %.loopexit

18:                                               ; preds = %7
  %19 = shl nsw i32 %10, 1
  %20 = add nsw i32 %19, 8
  %21 = sext i32 %20 to i64
  %22 = shl nsw i64 %21, 3
  %23 = tail call noalias ptr @av_mallocz(i64 noundef %22) #16
  %24 = getelementptr inbounds nuw i8, ptr %0, i64 16
  store ptr %23, ptr %24, align 8, !tbaa !26
  %.not66 = icmp eq ptr %23, null
  br i1 %.not66, label %.loopexit, label %25

25:                                               ; preds = %18
  %26 = sitofp i32 %4 to double
  %27 = fdiv nsz double 0x401921FB54442D18, %26
  %.not67 = icmp eq i32 %5, 0
  %28 = load double, ptr %13, align 8, !tbaa !25
  %29 = fmul nsz double %28, 2.000000e+00
  %30 = select i1 %.not67, double 1.000000e+00, double 5.000000e-01
  %31 = select nsz i1 %.not67, double %28, double %29
  %32 = fmul nsz double %30, %31
  %33 = fptrunc nsz double %32 to float
  %34 = getelementptr inbounds nuw i8, ptr %23, i64 4
  store float %33, ptr %23, align 4, !tbaa !27
  %35 = fmul nsz double %31, 5.000000e-01
  %36 = select nsz i1 %.not67, double %28, double %35
  %37 = fptrunc nsz double %36 to float
  %38 = getelementptr inbounds nuw i8, ptr %23, i64 8
  store float %37, ptr %34, align 4, !tbaa !27
  %39 = fptrunc nsz double %31 to float
  %40 = getelementptr inbounds nuw i8, ptr %23, i64 12
  store float %39, ptr %38, align 4, !tbaa !27
  %41 = fneg nsz float %39
  %42 = getelementptr inbounds nuw i8, ptr %23, i64 16
  store float %41, ptr %40, align 4, !tbaa !27
  %43 = fptrunc nsz double %35 to float
  %44 = getelementptr inbounds nuw i8, ptr %23, i64 20
  store float %43, ptr %42, align 4, !tbaa !27
  %.not68 = icmp eq i64 %8, 0
  br i1 %.not68, label %48, label %45

45:                                               ; preds = %25
  %46 = load float, ptr %14, align 4, !tbaa !83
  %47 = fdiv nsz float 1.000000e+00, %46
  br label %51

48:                                               ; preds = %25
  %49 = fmul nsz double %31, -5.000000e-01
  %50 = fptrunc nsz double %49 to float
  br label %51

51:                                               ; preds = %48, %45
  %storemerge = phi float [ %50, %48 ], [ %47, %45 ]
  %.062 = getelementptr inbounds nuw i8, ptr %23, i64 24
  store float %storemerge, ptr %44, align 4, !tbaa !27
  %52 = sitofp i32 %5 to double
  %53 = fsub nsz double 5.000000e-01, %52
  %54 = fmul nsz double %53, %31
  %55 = fptrunc nsz double %54 to float
  %56 = getelementptr inbounds nuw i8, ptr %23, i64 28
  store float %55, ptr %.062, align 4, !tbaa !27
  %57 = fneg nsz double %53
  %58 = fmul nsz double %31, %57
  %59 = fptrunc nsz double %58 to float
  store float %59, ptr %56, align 4, !tbaa !27
  %60 = icmp sgt i32 %10, 0
  br i1 %60, label %.lr.ph.preheader, label %.loopexit

.lr.ph.preheader:                                 ; preds = %51
  %61 = getelementptr inbounds nuw i8, ptr %23, i64 32
  br label %.lr.ph

.lr.ph74:                                         ; preds = %.lr.ph
  %62 = zext nneg i32 %10 to i64
  %63 = getelementptr inbounds nuw float, ptr %23, i64 %62
  %64 = getelementptr inbounds nuw i8, ptr %63, i64 32
  %65 = select i1 %.not67, i32 -1, i32 1
  %66 = sitofp i32 %65 to double
  br label %73

.lr.ph:                                           ; preds = %.lr.ph.preheader, %.lr.ph
  %.06070 = phi i32 [ %72, %.lr.ph ], [ 0, %.lr.ph.preheader ]
  %.169 = phi ptr [ %71, %.lr.ph ], [ %61, %.lr.ph.preheader ]
  %67 = uitofp nneg i32 %.06070 to double
  %68 = fmul nsz double %27, %67
  %69 = tail call nsz double @llvm.cos.f64(double %68)
  %70 = fptrunc nsz double %69 to float
  %71 = getelementptr inbounds nuw i8, ptr %.169, i64 4
  store float %70, ptr %.169, align 4, !tbaa !27
  %72 = add nuw nsw i32 %.06070, 1
  %exitcond.not = icmp eq i32 %72, %10
  br i1 %exitcond.not, label %.lr.ph74, label %.lr.ph, !llvm.loop !138

73:                                               ; preds = %.lr.ph74, %73
  %.072 = phi i32 [ 0, %.lr.ph74 ], [ %83, %73 ]
  %.271 = phi ptr [ %64, %.lr.ph74 ], [ %82, %73 ]
  %74 = shl nsw i32 %.072, 2
  %75 = sub nsw i32 %4, %74
  %76 = sitofp i32 %75 to double
  %77 = fmul nsz double %76, 2.500000e-01
  %78 = fmul nsz double %27, %77
  %79 = tail call nsz double @llvm.cos.f64(double %78)
  %80 = fmul nsz double %79, %66
  %81 = fptrunc nsz double %80 to float
  %82 = getelementptr inbounds nuw i8, ptr %.271, i64 4
  store float %81, ptr %.271, align 4, !tbaa !27
  %83 = add nuw nsw i32 %.072, 1
  %exitcond75.not = icmp eq i32 %83, %10
  br i1 %exitcond75.not, label %.loopexit, label %73, !llvm.loop !139

.loopexit:                                        ; preds = %73, %51, %18, %7
  %.061 = phi i32 [ %17, %7 ], [ -12, %18 ], [ 0, %51 ], [ 0, %73 ]
  ret i32 %.061
}